; Function Attrs: mustprogress uwtable
define noundef nonnull align 8 dereferenceable(8) ptr @_ZN7xgboost15DummyJsonObjectEv() local_unnamed_addr #3 personality ptr @__gxx_personality_v0 {
  %1 = load atomic i8, ptr @_ZGVZN7xgboost15DummyJsonObjectEvE3obj acquire, align 8
  %2 = icmp eq i8 %1, 0
  br i1 %2, label %3, label %12, !prof !230

3:                                                ; preds = %0
  %4 = tail call i32 @__cxa_guard_acquire(ptr nonnull @_ZGVZN7xgboost15DummyJsonObjectEvE3obj) #18
  %.not = icmp eq i32 %4, 0
  br i1 %.not, label %12, label %5

5:                                                ; preds = %3
  %6 = invoke noalias noundef nonnull dereferenceable(24) ptr @_Znwm(i64 noundef 24) #39
          to label %7 unwind label %13

7:                                                ; preds = %5
  %8 = getelementptr inbounds nuw i8, ptr %6, i64 8
  store i32 0, ptr %8, align 4, !tbaa !3
  %9 = getelementptr inbounds nuw i8, ptr %6, i64 16
  store i64 6, ptr %9, align 8, !tbaa !8
  store ptr getelementptr inbounds nuw inrange(-16, 56) (i8, ptr @_ZTVN7xgboost8JsonNullE, i64 16), ptr %6, align 8, !tbaa !13
  store ptr %6, ptr @_ZZN7xgboost15DummyJsonObjectEvE3obj, align 8, !tbaa !173
  %10 = atomicrmw add ptr %8, i32 1 monotonic, align 4
  %11 = tail call i32 @__cxa_atexit(ptr nonnull @_ZN7xgboost4JsonD2Ev, ptr nonnull @_ZZN7xgboost15DummyJsonObjectEvE3obj, ptr nonnull @__dso_handle) #18
  tail call void @__cxa_guard_release(ptr nonnull @_ZGVZN7xgboost15DummyJsonObjectEvE3obj) #18
  br label %12

12:                                               ; preds = %7, %3, %0
  ret ptr @_ZZN7xgboost15DummyJsonObjectEvE3obj

13:                                               ; preds = %5
  %14 = landingpad { ptr, i32 }
          cleanup
  tail call void @__cxa_guard_abort(ptr nonnull @_ZGVZN7xgboost15DummyJsonObjectEvE3obj) #18
  resume { ptr, i32 } %14
}